target datalayout = "e-m:e-p270:32:32-p271:32:32-p272:64:64-i64:64-i128:128-f80:128-n8:16:32:64-S128"
target triple = "x86_64-pc-linux-gnu"

%struct._packet_info = type { ptr, ptr, i32, i32, %struct.nstime_t, %struct.nstime_t, %struct.nstime_t, i8, ptr, ptr, ptr, ptr, %struct._address, %struct._address, %struct._address, %struct._address, %struct._address, %struct._address, i32, ptr, i8, [3 x i8], %struct.anon, i32, i32, i32, i32, ptr, i8, ptr, ptr, i16, i16, i32, i32, i16, i32, i32, ptr, ptr, ptr, i8, i8, i16, i16, i16, i32, i16, i16, ptr, ptr, ptr, ptr, ptr, i32, i32 }
%struct.nstime_t = type { i64, i32 }
%struct._address = type { i32, i32, ptr, ptr }
%struct.anon = type { i8, [3 x i8] }

@hf_zrtp_msg_hash_image = internal global i32 0, align 4
@hf_zrtp_msg_rs1ID = internal global i32 0, align 4
@hf_zrtp_msg_rs2ID = internal global i32 0, align 4
@hf_zrtp_msg_auxs = internal global i32 0, align 4
@hf_zrtp_msg_pbxs = internal global i32 0, align 4
@hf_zrtp_msg_hmac = internal global i32 0, align 4
@proto_zrtp = internal global i32 0, align 4
@.str.211 = private unnamed_addr constant [15 x i8] c"DHPart1 Packet\00", align 1
@.str.212 = private unnamed_addr constant [15 x i8] c"DHPart2 Packet\00", align 1
@.str.213 = private unnamed_addr constant [9 x i8] c"pvr Data\00", align 1
@.str.214 = private unnamed_addr constant [9 x i8] c"pvi Data\00", align 1

; Function Attrs: null_pointer_is_valid sspstrong uwtable
define internal void @dissect_DHPart(ptr noundef %0, ptr noundef %1, ptr noundef %2, i32 noundef %3) #0 {
  %5 = alloca ptr, align 8
  %6 = alloca ptr, align 8
  %7 = alloca ptr, align 8
  %8 = alloca i32, align 4
  %9 = alloca i32, align 4
  %10 = alloca i32, align 4
  %11 = alloca i32, align 4
  %12 = alloca i32, align 4
  store ptr %0, ptr %5, align 8
  store ptr %1, ptr %6, align 8
  store ptr %2, ptr %7, align 8
  store i32 %3, ptr %8, align 4
  call void @llvm.lifetime.start.p0(i64 4, ptr %9) #6
  store i32 12, ptr %9, align 4
  call void @llvm.lifetime.start.p0(i64 4, ptr %10) #6
  store i32 56, ptr %10, align 4
  call void @llvm.lifetime.start.p0(i64 4, ptr %11) #6
  call void @llvm.lifetime.start.p0(i64 4, ptr %12) #6
  %13 = load ptr, ptr %6, align 8
  %14 = getelementptr inbounds nuw %struct._packet_info, ptr %13, i32 0, i32 1
  %15 = load ptr, ptr %14, align 8
  %16 = load i32, ptr %8, align 4
  %17 = icmp eq i32 %16, 1
  %18 = select i1 %17, ptr @.str.211, ptr @.str.212
  call void @col_set_str(ptr noundef %15, i32 noundef 25, ptr noundef %18)
  %19 = load ptr, ptr %7, align 8
  %20 = load i32, ptr @hf_zrtp_msg_hash_image, align 4
  %21 = load ptr, ptr %5, align 8
  %22 = load i32, ptr %9, align 4
  %23 = add i32 %22, 12
  %24 = call ptr @proto_tree_add_item(ptr noundef %19, i32 noundef %20, ptr noundef %21, i32 noundef %23, i32 noundef 32, i32 noundef 0)
  %25 = load ptr, ptr %7, align 8
  %26 = load i32, ptr @hf_zrtp_msg_rs1ID, align 4
  %27 = load ptr, ptr %5, align 8
  %28 = load i32, ptr %10, align 4
  %29 = add i32 %28, 0
  %30 = call ptr @proto_tree_add_item(ptr noundef %25, i32 noundef %26, ptr noundef %27, i32 noundef %29, i32 noundef 8, i32 noundef 0)
  %31 = load ptr, ptr %7, align 8
  %32 = load i32, ptr @hf_zrtp_msg_rs2ID, align 4
  %33 = load ptr, ptr %5, align 8
  %34 = load i32, ptr %10, align 4
  %35 = add i32 %34, 8
  %36 = call ptr @proto_tree_add_item(ptr noundef %31, i32 noundef %32, ptr noundef %33, i32 noundef %35, i32 noundef 8, i32 noundef 0)
  %37 = load ptr, ptr %7, align 8
  %38 = load i32, ptr @hf_zrtp_msg_auxs, align 4
  %39 = load ptr, ptr %5, align 8
  %40 = load i32, ptr %10, align 4
  %41 = add i32 %40, 16
  %42 = call ptr @proto_tree_add_item(ptr noundef %37, i32 noundef %38, ptr noundef %39, i32 noundef %41, i32 noundef 8, i32 noundef 0)
  %43 = load ptr, ptr %7, align 8
  %44 = load i32, ptr @hf_zrtp_msg_pbxs, align 4
  %45 = load ptr, ptr %5, align 8
  %46 = load i32, ptr %10, align 4
  %47 = add i32 %46, 24
  %48 = call ptr @proto_tree_add_item(ptr noundef %43, i32 noundef %44, ptr noundef %45, i32 noundef %47, i32 noundef 8, i32 noundef 0)
  %49 = load ptr, ptr %5, align 8
  %50 = load i32, ptr %10, align 4
  %51 = add i32 %50, 32
  %52 = call i32 @tvb_reported_length_remaining(ptr noundef %49, i32 noundef %51)
  store i32 %52, ptr %11, align 4
  %53 = load i32, ptr %11, align 4
  %54 = sub i32 %53, 8
  %55 = sub i32 %54, 4
  store i32 %55, ptr %12, align 4
  %56 = load ptr, ptr %7, align 8
  %57 = load i32, ptr @proto_zrtp, align 4
  %58 = load ptr, ptr %5, align 8
  %59 = load i32, ptr %10, align 4
  %60 = add i32 %59, 32
  %61 = load i32, ptr %12, align 4
  %62 = load i32, ptr %8, align 4
  %63 = icmp eq i32 %62, 1
  %64 = select i1 %63, ptr @.str.213, ptr @.str.214
  %65 = call ptr (ptr, i32, ptr, i32, i32, ptr, ...) @proto_tree_add_protocol_format(ptr noundef %56, i32 noundef %57, ptr noundef %58, i32 noundef %60, i32 noundef %61, ptr noundef %64)
  %66 = load ptr, ptr %7, align 8
  %67 = load i32, ptr @hf_zrtp_msg_hmac, align 4
  %68 = load ptr, ptr %5, align 8
  %69 = load i32, ptr %10, align 4
  %70 = add i32 %69, 32
  %71 = load i32, ptr %12, align 4
  %72 = add i32 %70, %71
  %73 = call ptr @proto_tree_add_item(ptr noundef %66, i32 noundef %67, ptr noundef %68, i32 noundef %72, i32 noundef 8, i32 noundef 0)
  call void @llvm.lifetime.end.p0(i64 4, ptr %12) #6
  call void @llvm.lifetime.end.p0(i64 4, ptr %11) #6
  call void @llvm.lifetime.end.p0(i64 4, ptr %10) #6
  call void @llvm.lifetime.end.p0(i64 4, ptr %9) #6
  ret void
}