; Function Attrs: null_pointer_is_valid sspstrong uwtable
define internal fastcc void @dissect_DHPart(ptr noundef %0, ptr %.8.val, ptr noundef %1, i32 noundef range(i32 1, 3) %2) unnamed_addr #0 {
  %4 = icmp eq i32 %2, 1
  %5 = select i1 %4, ptr @.str.211, ptr @.str.212
  tail call void @col_set_str(ptr noundef %.8.val, i32 noundef 25, ptr noundef nonnull %5)
  %6 = load i32, ptr @hf_zrtp_msg_hash_image, align 4
  %7 = tail call ptr @proto_tree_add_item(ptr noundef %1, i32 noundef %6, ptr noundef %0, i32 noundef 24, i32 noundef 32, i32 noundef 0)
  %8 = load i32, ptr @hf_zrtp_msg_rs1ID, align 4
  %9 = tail call ptr @proto_tree_add_item(ptr noundef %1, i32 noundef %8, ptr noundef %0, i32 noundef 56, i32 noundef 8, i32 noundef 0)
  %10 = load i32, ptr @hf_zrtp_msg_rs2ID, align 4
  %11 = tail call ptr @proto_tree_add_item(ptr noundef %1, i32 noundef %10, ptr noundef %0, i32 noundef 64, i32 noundef 8, i32 noundef 0)
  %12 = load i32, ptr @hf_zrtp_msg_auxs, align 4
  %13 = tail call ptr @proto_tree_add_item(ptr noundef %1, i32 noundef %12, ptr noundef %0, i32 noundef 72, i32 noundef 8, i32 noundef 0)
  %14 = load i32, ptr @hf_zrtp_msg_pbxs, align 4
  %15 = tail call ptr @proto_tree_add_item(ptr noundef %1, i32 noundef %14, ptr noundef %0, i32 noundef 80, i32 noundef 8, i32 noundef 0)
  %16 = tail call i32 @tvb_reported_length_remaining(ptr noundef %0, i32 noundef 88)
  %17 = add i32 %16, -12
  %18 = load i32, ptr @proto_zrtp, align 4
  %19 = select i1 %4, ptr @.str.213, ptr @.str.214
  %20 = tail call ptr (ptr, i32, ptr, i32, i32, ptr, ...) @proto_tree_add_protocol_format(ptr noundef %1, i32 noundef %18, ptr noundef %0, i32 noundef 88, i32 noundef %17, ptr noundef nonnull %19)
  %21 = load i32, ptr @hf_zrtp_msg_hmac, align 4
  %22 = add i32 %16, 76
  %23 = tail call ptr @proto_tree_add_item(ptr noundef %1, i32 noundef %21, ptr noundef %0, i32 noundef %22, i32 noundef 8, i32 noundef 0)
  ret void
}